target datalayout = "e-m:e-p270:32:32-p271:32:32-p272:64:64-i64:64-i128:128-f80:128-n8:16:32:64-S128"
target triple = "x86_64-pc-linux-gnu"

%struct.__sigset_t = type { [16 x i64] }

@whereToSendOutput = dso_local global i32 1, align 4
@InterruptHoldoffCount = external global i32, align 4
@.str.3 = private unnamed_addr constant [11 x i8] c"postgres.c\00", align 1
@BlockSig = external global %struct.__sigset_t, align 8
@ClientAuthInProgress = external global i8, align 1
@error_context_stack = external global ptr, align 8
@.str.10 = private unnamed_addr constant [60 x i8] c"terminating connection because of unexpected SIGQUIT signal\00", align 1
@__func__.quickdie = private unnamed_addr constant [9 x i8] c"quickdie\00", align 1
@.str.11 = private unnamed_addr constant [66 x i8] c"terminating connection because of crash of another server process\00", align 1
@.str.12 = private unnamed_addr constant [183 x i8] c"The postmaster has commanded this server process to roll back the current transaction and exit, because another server process exited abnormally and possibly corrupted shared memory.\00", align 1
@.str.13 = private unnamed_addr constant [85 x i8] c"In a moment you should be able to reconnect to the database and repeat your command.\00", align 1
@.str.14 = private unnamed_addr constant [57 x i8] c"terminating connection due to immediate shutdown command\00", align 1

; Function Attrs: noreturn nounwind uwtable
define dso_local void @quickdie(i32 noundef %0) #8 {
  %2 = alloca i32, align 4
  store i32 %0, ptr %2, align 4
  %3 = call i32 @sigaddset(ptr noundef @BlockSig, i32 noundef 3) #16
  %4 = call i32 @sigprocmask(i32 noundef 2, ptr noundef @BlockSig, ptr noundef null) #16
  %5 = load volatile i32, ptr @InterruptHoldoffCount, align 4
  %6 = add i32 %5, 1
  store volatile i32 %6, ptr @InterruptHoldoffCount, align 4
  %7 = load i8, ptr @ClientAuthInProgress, align 1, !range !4, !noundef !5
  %8 = trunc i8 %7 to i1
  br i1 %8, label %9, label %13

9:                                                ; preds = %1
  %10 = load i32, ptr @whereToSendOutput, align 4
  %11 = icmp eq i32 %10, 2
  br i1 %11, label %12, label %13

12:                                               ; preds = %9
  store i32 0, ptr @whereToSendOutput, align 4
  br label %13

13:                                               ; preds = %12, %9, %1
  store ptr null, ptr @error_context_stack, align 8
  %14 = call i32 @GetQuitSignalReason()
  switch i32 %14, label %50 [
    i32 0, label %15
    i32 1, label %26
    i32 2, label %39
  ]

15:                                               ; preds = %13
  br label %16

16:                                               ; preds = %15
  br i1 false, label %17, label %19

17:                                               ; preds = %16
  %18 = call zeroext i1 @errstart_cold(i32 noundef 19, ptr noundef null) #18
  br i1 %18, label %21, label %24

19:                                               ; preds = %16
  %20 = call zeroext i1 @errstart(i32 noundef 19, ptr noundef null)
  br i1 %20, label %21, label %24

21:                                               ; preds = %19, %17
  %22 = call i32 @errcode(i32 noundef 16908741)
  %23 = call i32 (ptr, ...) @errmsg(ptr noundef @.str.10)
  call void @errfinish(ptr noundef @.str.3, i32 noundef 2957, ptr noundef @__func__.quickdie)
  br label %24

24:                                               ; preds = %21, %19, %17
  br label %25

25:                                               ; preds = %24
  br label %50

26:                                               ; preds = %13
  br label %27

27:                                               ; preds = %26
  br i1 false, label %28, label %30

28:                                               ; preds = %27
  %29 = call zeroext i1 @errstart_cold(i32 noundef 20, ptr noundef null) #18
  br i1 %29, label %32, label %37

30:                                               ; preds = %27
  %31 = call zeroext i1 @errstart(i32 noundef 20, ptr noundef null)
  br i1 %31, label %32, label %37

32:                                               ; preds = %30, %28
  %33 = call i32 @errcode(i32 noundef 33685957)
  %34 = call i32 (ptr, ...) @errmsg(ptr noundef @.str.11)
  %35 = call i32 (ptr, ...) @errdetail(ptr noundef @.str.12)
  %36 = call i32 (ptr, ...) @errhint(ptr noundef @.str.13)
  call void @errfinish(ptr noundef @.str.3, i32 noundef 2969, ptr noundef @__func__.quickdie)
  br label %37

37:                                               ; preds = %32, %30, %28
  br label %38

38:                                               ; preds = %37
  br label %50

39:                                               ; preds = %13
  br label %40

40:                                               ; preds = %39
  br i1 false, label %41, label %43

41:                                               ; preds = %40
  %42 = call zeroext i1 @errstart_cold(i32 noundef 20, ptr noundef null) #18
  br i1 %42, label %45, label %48

43:                                               ; preds = %40
  %44 = call zeroext i1 @errstart(i32 noundef 20, ptr noundef null)
  br i1 %44, label %45, label %48

45:                                               ; preds = %43, %41
  %46 = call i32 @errcode(i32 noundef 16908741)
  %47 = call i32 (ptr, ...) @errmsg(ptr noundef @.str.14)
  call void @errfinish(ptr noundef @.str.3, i32 noundef 2975, ptr noundef @__func__.quickdie)
  br label %48

48:                                               ; preds = %45, %43, %41
  br label %49

49:                                               ; preds = %48
  br label %50

50:                                               ; preds = %13, %49, %38, %25
  call void @_exit(i32 noundef 2) #19
  unreachable
}