; Function Attrs: noreturn nounwind uwtable
define dso_local void @quickdie(i32 %0) #5 {
  %2 = tail call i32 @sigaddset(ptr noundef nonnull @BlockSig, i32 noundef 3) #22
  %3 = tail call i32 @sigprocmask(i32 noundef 2, ptr noundef nonnull @BlockSig, ptr noundef null) #22
  %4 = load volatile i32, ptr @InterruptHoldoffCount, align 4
  %5 = add i32 %4, 1
  store volatile i32 %5, ptr @InterruptHoldoffCount, align 4
  %6 = load i8, ptr @ClientAuthInProgress, align 1, !range !5, !noundef !6
  %7 = trunc nuw i8 %6 to i1
  %8 = load i32, ptr @whereToSendOutput, align 4
  %9 = icmp eq i32 %8, 2
  %or.cond = select i1 %7, i1 %9, i1 false
  br i1 %or.cond, label %10, label %11

10:                                               ; preds = %1
  store i32 0, ptr @whereToSendOutput, align 4
  br label %11

11:                                               ; preds = %10, %1
  store ptr null, ptr @error_context_stack, align 8
  %12 = tail call i32 @GetQuitSignalReason() #22
  switch i32 %12, label %30 [
    i32 0, label %13
    i32 1, label %18
    i32 2, label %25
  ]

13:                                               ; preds = %11
  %14 = tail call zeroext i1 @errstart(i32 noundef 19, ptr noundef null) #22
  br i1 %14, label %15, label %30

15:                                               ; preds = %13
  %16 = tail call i32 @errcode(i32 noundef 16908741) #22
  %17 = tail call i32 (ptr, ...) @errmsg(ptr noundef nonnull @.str.10) #22
  br label %.sink.split

18:                                               ; preds = %11
  %19 = tail call zeroext i1 @errstart(i32 noundef 20, ptr noundef null) #22
  br i1 %19, label %20, label %30

20:                                               ; preds = %18
  %21 = tail call i32 @errcode(i32 noundef 33685957) #22
  %22 = tail call i32 (ptr, ...) @errmsg(ptr noundef nonnull @.str.11) #22
  %23 = tail call i32 (ptr, ...) @errdetail(ptr noundef nonnull @.str.12) #22
  %24 = tail call i32 (ptr, ...) @errhint(ptr noundef nonnull @.str.13) #22
  br label %.sink.split

25:                                               ; preds = %11
  %26 = tail call zeroext i1 @errstart(i32 noundef 20, ptr noundef null) #22
  br i1 %26, label %27, label %30

27:                                               ; preds = %25
  %28 = tail call i32 @errcode(i32 noundef 16908741) #22
  %29 = tail call i32 (ptr, ...) @errmsg(ptr noundef nonnull @.str.14) #22
  br label %.sink.split

.sink.split:                                      ; preds = %15, %20, %27
  %.sink = phi i32 [ 2975, %27 ], [ 2969, %20 ], [ 2957, %15 ]
  tail call void @errfinish(ptr noundef nonnull @.str.3, i32 noundef %.sink, ptr noundef nonnull @__func__.quickdie) #22
  br label %30

30:                                               ; preds = %.sink.split, %25, %18, %13, %11
  tail call void @_exit(i32 noundef 2) #24
  unreachable
}